; Function Attrs: null_pointer_is_valid sspstrong uwtable
define internal noundef zeroext i1 @dissect_msrp_heur(ptr noundef %0, ptr noundef %1, ptr noundef %2, ptr readnone captures(none) %3) #0 {
  %5 = tail call fastcc zeroext i1 @check_msrp_header(ptr noundef %0)
  br i1 %5, label %6, label %17

6:                                                ; preds = %4
  %7 = getelementptr inbounds nuw i8, ptr %1, i64 80
  %8 = load ptr, ptr %7, align 8
  %9 = getelementptr inbounds nuw i8, ptr %8, i64 57
  %10 = load i16, ptr %9, align 1
  %11 = and i16 %10, 8
  %.not = icmp eq i16 %11, 0
  br i1 %.not, label %15, label %12

12:                                               ; preds = %6
  %13 = tail call ptr @find_or_create_conversation(ptr noundef %1)
  %14 = load ptr, ptr @msrp_handle, align 8
  tail call void @conversation_set_dissector(ptr noundef %13, ptr noundef %14)
  br label %15

15:                                               ; preds = %12, %6
  %16 = tail call i32 @dissect_msrp(ptr noundef %0, ptr noundef %1, ptr noundef %2, ptr poison)
  br label %17

17:                                               ; preds = %4, %15
  ret i1 %5
}